(dp1
S'start'
p2
cdatetime
datetime
p3
(S'\x07\xe0\x06\r\x00\x00\x00\x00\x00\x00'
tRp4
sS'bbox'
p5
(lp6
F-71.299999999999997
aF42.030000000000001
aF-70.569999999999993
aF42.630000000000003
asS'run_name'
p7
S'latest'
p8
sS'units'
p9
ccopy_reg
_reconstructor
p10
(ccf_units
Unit
p11
c__builtin__
object
p12
NtRp13
(dp14
S'calendar'
p15
NsS'unit_text'
p16
S'celsius'
p17
sbsS'stop'
p18
g3
(S'\x07\xe0\x06\x15\x00\x00\x00\x00\x00\x00'
tRp19
sS'name_list'
p20
(lp21
S'sea_water_temperature'
p22
aS'sea_surface_temperature'
p23
aS'sea_water_potential_temperature'
p24
aS'equivalent_potential_temperature'
p25
aS'sea_water_conservative_temperature'
p26
aS'pseudo_equivalent_potential_temperature'
p27
as.