(dp1
S'mean_bias'
p2
ccopy_reg
_reconstructor
p3
(cpandas.core.frame
DataFrame
p4
c__builtin__
object
p5
NtRp6
(dp7
S'_metadata'
p8
(lp9
sS'_typ'
p10
S'dataframe'
p11
sS'_data'
p12
g3
(cpandas.core.internals
BlockManager
p13
g5
NtRp14
((lp15
cpandas.indexes.base
_new_Index
p16
(cpandas.indexes.base
Index
p17
(dp18
S'data'
p19
cnumpy.core.multiarray
_reconstruct
p20
(cnumpy
ndarray
p21
(I0
tS'b'
tRp22
(I1
(I3
tcnumpy
dtype
p23
(S'O8'
I0
I1
tRp24
(I3
S'|'
NNNI-1
I-1
I63
tbI00
(lp25
S'Boston 16 Nm East Of Boston'
p26
aS'Buoy A01'
p27
aS'Boston, MA'
p28
atbsS'name'
p29
NstRp30
ag16
(g17
(dp31
g19
g20
(g21
(I0
tS'b'
tRp32
(I1
(I4
tg24
I00
(lp33
S'COAWST_USGS'
p34
aS'HYCOM'
p35
aS'NECOFS_FVCOM'
p36
aS'NECOFS_GOM3_FVCOM'
p37
atbsg29
NstRp38
a(lp39
g20
(g21
(I0
tS'b'
tRp40
(I1
(I3
I4
tg23
(S'f8'
I0
I1
tRp41
(I3
S'<'
NNNI-1
I-1
I0
tbI00
S'\x1cD\x8f\xef\x02\x9d\n@""""<\xe6\xf0?\x9d\x9c\x9c\x9cc\x0b\x13@\xf4\xf3\xf3\xf3K\x84\xe3?O]\xcbA\xa4$\t@\xcd\xcc\xcc\xcc\xde#\xe7?\xb9\xac\x18(\xa50\x11@\xf4k\x0f\xb9\xc4^\xe5?\x0ek\xdfp\xb1\xc6\x03@\x00\x00\x00\x00\x00\x00\xf8\x7f\xdc\x11w\xc4&\x01\xea?\x9b\xb2\xa6\xac\x17\xea\xdd?'
tba(lp42
g16
(g17
(dp43
g19
g20
(g21
(I0
tS'b'
tRp44
(I1
(I3
tg24
I00
(lp45
g26
ag27
ag28
atbsg29
NstRp46
a(dp47
S'0.14.1'
p48
(dp49
S'axes'
p50
g15
sS'blocks'
p51
(lp52
(dp53
S'mgr_locs'
p54
c__builtin__
slice
p55
(I0
I3
I1
tRp56
sS'values'
p57
g40
sasstbsbsS'r2'
p58
g3
(g4
g5
NtRp59
(dp60
g8
g9
sg10
g11
sg12
g3
(g13
g5
NtRp61
((lp62
g16
(g17
(dp63
g19
g20
(g21
(I0
tS'b'
tRp64
(I1
(I3
tg24
I00
(lp65
g26
ag27
ag28
atbsg29
NstRp66
ag16
(g17
(dp67
g19
g20
(g21
(I0
tS'b'
tRp68
(I1
(I4
tg24
I00
(lp69
S'COAWST_USGS'
p70
aS'HYCOM'
p71
aS'NECOFS_FVCOM'
p72
aS'NECOFS_GOM3_FVCOM'
p73
atbsg29
NstRp74
a(lp75
g20
(g21
(I0
tS'b'
tRp76
(I1
(I3
I4
tg41
I00
S'\xd0d6\x93\xff\xd8\xb1\xbf\x0c\xd9|\xcf\x0e\x15\xd9?LKol\\v\xda?h\xf8\x0b:\xf2\xb8\xe5?h\xa5z\xbf\x0e\x8e\xbd?\x98\xdez(\xc9\x93\xe3?n\xde\xf2\xd2\xae\xd4\xda?H`\xba5\xe6;\xea?Y\xa3\x0f\x8d%T\x10\xc0\x00\x00\x00\x00\x00\x00\xf8\x7f\x02\x12*\xd2\x80\xc8\xe1?`\x01\xb2\xdf\xfe\xcf\xca?'
tba(lp77
g16
(g17
(dp78
g19
g20
(g21
(I0
tS'b'
tRp79
(I1
(I3
tg24
I00
(lp80
g26
ag27
ag28
atbsg29
NstRp81
a(dp82
g48
(dp83
g50
g62
sg51
(lp84
(dp85
g54
g55
(I0
I3
I1
tRp86
sg57
g76
sasstbsbsS'rmse'
p87
g3
(g4
g5
NtRp88
(dp89
g8
g9
sg10
g11
sg12
g3
(g13
g5
NtRp90
((lp91
g16
(g17
(dp92
g19
g20
(g21
(I0
tS'b'
tRp93
(I1
(I3
tg24
I00
(lp94
g26
ag27
ag28
atbsg29
NstRp95
ag16
(g17
(dp96
g19
g20
(g21
(I0
tS'b'
tRp97
(I1
(I4
tg24
I00
(lp98
S'COAWST_USGS'
p99
aS'HYCOM'
p100
aS'NECOFS_FVCOM'
p101
aS'NECOFS_GOM3_FVCOM'
p102
atbsg29
NstRp103
a(lp104
g20
(g21
(I0
tS'b'
tRp105
(I1
(I3
I4
tg41
I00
S'@1\xed\x96\x82\xa1\xf3?}\xe6\xb6\xb7\x01\xc9\xef?\xb9\x1f\x1b\xb1\xb1t\xee?\x12\xac\xcdc{\x89\xe6?\x17\xdbm\x1c\xb2\xd1\xf3?~\xaa\xb4l\x84G\xe9?\x0eX?}\x06f\xee?w\xfaPR\xa6\xee\xe0?\x16\x81\x85\xd6\x9f/\xf5?\x00\x00\x00\x00\x00\x00\xf8\x7f\x05^\xd4\xf97e\xd9?{\xfcb0\x15\xf0\xe0?'
tba(lp106
g16
(g17
(dp107
g19
g20
(g21
(I0
tS'b'
tRp108
(I1
(I3
tg24
I00
(lp109
g26
ag27
ag28
atbsg29
NstRp110
a(dp111
g48
(dp112
g50
g91
sg51
(lp113
(dp114
g54
g55
(I0
I3
I1
tRp115
sg57
g105
sasstbsbs.